target datalayout = "e-m:e-p270:32:32-p271:32:32-p272:64:64-i64:64-i128:128-f80:128-n8:16:32:64-S128"
target triple = "x86_64-pc-linux-gnu"

%struct.promisor_remote_config = type { ptr, ptr }
%struct.promisor_remote = type { ptr, ptr, [0 x i8] }

@.str.1 = private unnamed_addr constant [7 x i8] c"remote\00", align 1
@.str.2 = private unnamed_addr constant [9 x i8] c"promisor\00", align 1
@.str.3 = private unnamed_addr constant [19 x i8] c"partialclonefilter\00", align 1

; Function Attrs: nounwind uwtable
define internal ptr @promisor_remote_lookup(ptr noundef %0, ptr noundef %1, ptr noundef %2) #0 {
  %4 = alloca ptr, align 8
  %5 = alloca ptr, align 8
  %6 = alloca ptr, align 8
  %7 = alloca ptr, align 8
  %8 = alloca ptr, align 8
  %9 = alloca ptr, align 8
  %10 = alloca i32, align 4
  store ptr %0, ptr %5, align 8, !tbaa !4
  store ptr %1, ptr %6, align 8, !tbaa !14
  store ptr %2, ptr %7, align 8, !tbaa !41
  call void @llvm.lifetime.start.p0(i64 8, ptr %8) #8
  call void @llvm.lifetime.start.p0(i64 8, ptr %9) #8
  store ptr null, ptr %9, align 8, !tbaa !13
  %11 = load ptr, ptr %5, align 8, !tbaa !4
  %12 = getelementptr inbounds nuw %struct.promisor_remote_config, ptr %11, i32 0, i32 0
  %13 = load ptr, ptr %12, align 8, !tbaa !9
  store ptr %13, ptr %8, align 8, !tbaa !13
  br label %14

14:                                               ; preds = %33, %3
  %15 = load ptr, ptr %8, align 8, !tbaa !13
  %16 = icmp ne ptr %15, null
  br i1 %16, label %17, label %38

17:                                               ; preds = %14
  %18 = load ptr, ptr %8, align 8, !tbaa !13
  %19 = getelementptr inbounds nuw %struct.promisor_remote, ptr %18, i32 0, i32 2
  %20 = getelementptr inbounds [0 x i8], ptr %19, i64 0, i64 0
  %21 = load ptr, ptr %6, align 8, !tbaa !14
  %22 = call i32 @strcmp(ptr noundef %20, ptr noundef %21) #9
  %23 = icmp ne i32 %22, 0
  br i1 %23, label %32, label %24

24:                                               ; preds = %17
  %25 = load ptr, ptr %7, align 8, !tbaa !41
  %26 = icmp ne ptr %25, null
  br i1 %26, label %27, label %30

27:                                               ; preds = %24
  %28 = load ptr, ptr %9, align 8, !tbaa !13
  %29 = load ptr, ptr %7, align 8, !tbaa !41
  store ptr %28, ptr %29, align 8, !tbaa !13
  br label %30

30:                                               ; preds = %27, %24
  %31 = load ptr, ptr %8, align 8, !tbaa !13
  store ptr %31, ptr %4, align 8
  store i32 1, ptr %10, align 4
  br label %39

32:                                               ; preds = %17
  br label %33

33:                                               ; preds = %32
  %34 = load ptr, ptr %8, align 8, !tbaa !13
  store ptr %34, ptr %9, align 8, !tbaa !13
  %35 = load ptr, ptr %8, align 8, !tbaa !13
  %36 = getelementptr inbounds nuw %struct.promisor_remote, ptr %35, i32 0, i32 0
  %37 = load ptr, ptr %36, align 8, !tbaa !13
  store ptr %37, ptr %8, align 8, !tbaa !13
  br label %14, !llvm.loop !42

38:                                               ; preds = %14
  store ptr null, ptr %4, align 8
  store i32 1, ptr %10, align 4
  br label %39

39:                                               ; preds = %38, %30
  call void @llvm.lifetime.end.p0(i64 8, ptr %9) #8
  call void @llvm.lifetime.end.p0(i64 8, ptr %8) #8
  %40 = load ptr, ptr %4, align 8
  ret ptr %40
}

; Function Attrs: nounwind uwtable
define internal i32 @promisor_remote_config(ptr noundef %0, ptr noundef %1, ptr noundef %2, ptr noundef %3) #0 {
  %5 = alloca i32, align 4
  %6 = alloca ptr, align 8
  %7 = alloca ptr, align 8
  %8 = alloca ptr, align 8
  %9 = alloca ptr, align 8
  %10 = alloca ptr, align 8
  %11 = alloca ptr, align 8
  %12 = alloca i64, align 8
  %13 = alloca ptr, align 8
  %14 = alloca i32, align 4
  %15 = alloca ptr, align 8
  %16 = alloca ptr, align 8
  %17 = alloca ptr, align 8
  store ptr %0, ptr %6, align 8, !tbaa !14
  store ptr %1, ptr %7, align 8, !tbaa !14
  store ptr %2, ptr %8, align 8, !tbaa !63
  store ptr %3, ptr %9, align 8, !tbaa !65
  call void @llvm.lifetime.start.p0(i64 8, ptr %10) #8
  %18 = load ptr, ptr %9, align 8, !tbaa !65
  store ptr %18, ptr %10, align 8, !tbaa !4
  call void @llvm.lifetime.start.p0(i64 8, ptr %11) #8
  call void @llvm.lifetime.start.p0(i64 8, ptr %12) #8
  call void @llvm.lifetime.start.p0(i64 8, ptr %13) #8
  %19 = load ptr, ptr %6, align 8, !tbaa !14
  %20 = call i32 @parse_config_key(ptr noundef %19, ptr noundef @.str.1, ptr noundef %11, ptr noundef %12, ptr noundef %13)
  %21 = icmp slt i32 %20, 0
  br i1 %21, label %22, label %23

22:                                               ; preds = %4
  store i32 0, ptr %5, align 4
  store i32 1, ptr %14, align 4
  br label %86

23:                                               ; preds = %4
  %24 = load ptr, ptr %13, align 8, !tbaa !14
  %25 = call i32 @strcmp(ptr noundef %24, ptr noundef @.str.2) #9
  %26 = icmp ne i32 %25, 0
  br i1 %26, label %48, label %27

27:                                               ; preds = %23
  call void @llvm.lifetime.start.p0(i64 8, ptr %15) #8
  %28 = load ptr, ptr %6, align 8, !tbaa !14
  %29 = load ptr, ptr %7, align 8, !tbaa !14
  %30 = call i32 @git_config_bool(ptr noundef %28, ptr noundef %29)
  %31 = icmp ne i32 %30, 0
  br i1 %31, label %33, label %32

32:                                               ; preds = %27
  store i32 0, ptr %5, align 4
  store i32 1, ptr %14, align 4
  br label %47

33:                                               ; preds = %27
  %34 = load ptr, ptr %11, align 8, !tbaa !14
  %35 = load i64, ptr %12, align 8, !tbaa !66
  %36 = call ptr @xmemdupz(ptr noundef %34, i64 noundef %35)
  store ptr %36, ptr %15, align 8, !tbaa !14
  %37 = load ptr, ptr %10, align 8, !tbaa !4
  %38 = load ptr, ptr %15, align 8, !tbaa !14
  %39 = call ptr @promisor_remote_lookup(ptr noundef %37, ptr noundef %38, ptr noundef null)
  %40 = icmp ne ptr %39, null
  br i1 %40, label %45, label %41

41:                                               ; preds = %33
  %42 = load ptr, ptr %10, align 8, !tbaa !4
  %43 = load ptr, ptr %15, align 8, !tbaa !14
  %44 = call ptr @promisor_remote_new(ptr noundef %42, ptr noundef %43)
  br label %45

45:                                               ; preds = %41, %33
  %46 = load ptr, ptr %15, align 8, !tbaa !14
  call void @free(ptr noundef %46) #8
  store i32 0, ptr %5, align 4
  store i32 1, ptr %14, align 4
  br label %47

47:                                               ; preds = %45, %32
  call void @llvm.lifetime.end.p0(i64 8, ptr %15) #8
  br label %86

48:                                               ; preds = %23
  %49 = load ptr, ptr %13, align 8, !tbaa !14
  %50 = call i32 @strcmp(ptr noundef %49, ptr noundef @.str.3) #9
  %51 = icmp ne i32 %50, 0
  br i1 %51, label %85, label %52

52:                                               ; preds = %48
  call void @llvm.lifetime.start.p0(i64 8, ptr %16) #8
  call void @llvm.lifetime.start.p0(i64 8, ptr %17) #8
  %53 = load ptr, ptr %11, align 8, !tbaa !14
  %54 = load i64, ptr %12, align 8, !tbaa !66
  %55 = call ptr @xmemdupz(ptr noundef %53, i64 noundef %54)
  store ptr %55, ptr %17, align 8, !tbaa !14
  %56 = load ptr, ptr %10, align 8, !tbaa !4
  %57 = load ptr, ptr %17, align 8, !tbaa !14
  %58 = call ptr @promisor_remote_lookup(ptr noundef %56, ptr noundef %57, ptr noundef null)
  store ptr %58, ptr %16, align 8, !tbaa !13
  %59 = load ptr, ptr %16, align 8, !tbaa !13
  %60 = icmp ne ptr %59, null
  br i1 %60, label %65, label %61

61:                                               ; preds = %52
  %62 = load ptr, ptr %10, align 8, !tbaa !4
  %63 = load ptr, ptr %17, align 8, !tbaa !14
  %64 = call ptr @promisor_remote_new(ptr noundef %62, ptr noundef %63)
  store ptr %64, ptr %16, align 8, !tbaa !13
  br label %65

65:                                               ; preds = %61, %52
  %66 = load ptr, ptr %17, align 8, !tbaa !14
  call void @free(ptr noundef %66) #8
  %67 = load ptr, ptr %16, align 8, !tbaa !13
  %68 = icmp ne ptr %67, null
  br i1 %68, label %70, label %69

69:                                               ; preds = %65
  store i32 0, ptr %5, align 4
  store i32 1, ptr %14, align 4
  br label %84

70:                                               ; preds = %65
  br label %71

71:                                               ; preds = %70
  %72 = load ptr, ptr %16, align 8, !tbaa !13
  %73 = getelementptr inbounds nuw %struct.promisor_remote, ptr %72, i32 0, i32 1
  %74 = load ptr, ptr %73, align 8, !tbaa !14
  call void @free(ptr noundef %74) #8
  %75 = load ptr, ptr %16, align 8, !tbaa !13
  %76 = getelementptr inbounds nuw %struct.promisor_remote, ptr %75, i32 0, i32 1
  store ptr null, ptr %76, align 8, !tbaa !14
  br label %77

77:                                               ; preds = %71
  br label %78

78:                                               ; preds = %77
  %79 = load ptr, ptr %16, align 8, !tbaa !13
  %80 = getelementptr inbounds nuw %struct.promisor_remote, ptr %79, i32 0, i32 1
  %81 = load ptr, ptr %6, align 8, !tbaa !14
  %82 = load ptr, ptr %7, align 8, !tbaa !14
  %83 = call i32 @git_config_string(ptr noundef %80, ptr noundef %81, ptr noundef %82)
  store i32 %83, ptr %5, align 4
  store i32 1, ptr %14, align 4
  br label %84

84:                                               ; preds = %78, %69
  call void @llvm.lifetime.end.p0(i64 8, ptr %17) #8
  call void @llvm.lifetime.end.p0(i64 8, ptr %16) #8
  br label %86

85:                                               ; preds = %48
  store i32 0, ptr %5, align 4
  store i32 1, ptr %14, align 4
  br label %86

86:                                               ; preds = %85, %84, %47, %22
  call void @llvm.lifetime.end.p0(i64 8, ptr %13) #8
  call void @llvm.lifetime.end.p0(i64 8, ptr %12) #8
  call void @llvm.lifetime.end.p0(i64 8, ptr %11) #8
  call void @llvm.lifetime.end.p0(i64 8, ptr %10) #8
  %87 = load i32, ptr %5, align 4
  ret i32 %87
}