; Function Attrs: nounwind uwtable
define internal i32 @promisor_remote_config(ptr noundef %0, ptr noundef %1, ptr readnone captures(none) %2, ptr noundef captures(none) %3) #0 {
  %5 = alloca ptr, align 8
  %6 = alloca i64, align 8
  %7 = alloca ptr, align 8
  call void @llvm.lifetime.start.p0(i64 8, ptr nonnull %5) #10
  call void @llvm.lifetime.start.p0(i64 8, ptr nonnull %6) #10
  call void @llvm.lifetime.start.p0(i64 8, ptr nonnull %7) #10
  %8 = call i32 @parse_config_key(ptr noundef %0, ptr noundef nonnull @.str.1, ptr noundef nonnull %5, ptr noundef nonnull %6, ptr noundef nonnull %7) #10
  %9 = icmp slt i32 %8, 0
  br i1 %9, label %40, label %10

10:                                               ; preds = %4
  %11 = load ptr, ptr %7, align 8, !tbaa !11
  %12 = call i32 @strcmp(ptr noundef nonnull dereferenceable(1) %11, ptr noundef nonnull dereferenceable(9) @.str.2) #11
  %.not = icmp eq i32 %12, 0
  br i1 %.not, label %13, label %25

13:                                               ; preds = %10
  %14 = call i32 @git_config_bool(ptr noundef %0, ptr noundef %1) #10
  %.not23 = icmp eq i32 %14, 0
  br i1 %.not23, label %40, label %15

15:                                               ; preds = %13
  %16 = load ptr, ptr %5, align 8, !tbaa !11
  %17 = load i64, ptr %6, align 8, !tbaa !55
  %18 = call ptr @xmemdupz(ptr noundef %16, i64 noundef %17) #10
  br label %19

19:                                               ; preds = %20, %15
  %.011.in.i = phi ptr [ %3, %15 ], [ %.011.i, %20 ]
  %.011.i = load ptr, ptr %.011.in.i, align 8, !tbaa !13
  %.not.i = icmp eq ptr %.011.i, null
  br i1 %.not.i, label %23, label %20

20:                                               ; preds = %19
  %21 = getelementptr inbounds nuw i8, ptr %.011.i, i64 16
  %22 = call i32 @strcmp(ptr noundef nonnull dereferenceable(1) %21, ptr noundef nonnull readonly dereferenceable(1) %18) #11
  %.not14.i = icmp eq i32 %22, 0
  br i1 %.not14.i, label %promisor_remote_lookup.exit, label %19, !llvm.loop !38

23:                                               ; preds = %19
  %24 = call fastcc ptr @promisor_remote_new(ptr noundef %3, ptr noundef %18)
  br label %promisor_remote_lookup.exit

promisor_remote_lookup.exit:                      ; preds = %20, %23
  call void @free(ptr noundef %18) #10
  br label %40

25:                                               ; preds = %10
  %26 = call i32 @strcmp(ptr noundef nonnull dereferenceable(1) %11, ptr noundef nonnull dereferenceable(19) @.str.3) #11
  %.not25 = icmp eq i32 %26, 0
  br i1 %.not25, label %27, label %40

27:                                               ; preds = %25
  %28 = load ptr, ptr %5, align 8, !tbaa !11
  %29 = load i64, ptr %6, align 8, !tbaa !55
  %30 = call ptr @xmemdupz(ptr noundef %28, i64 noundef %29) #10
  br label %31

31:                                               ; preds = %32, %27
  %.011.in.i28 = phi ptr [ %3, %27 ], [ %.011.i30, %32 ]
  %.011.i30 = load ptr, ptr %.011.in.i28, align 8, !tbaa !13
  %.not.i31 = icmp eq ptr %.011.i30, null
  br i1 %.not.i31, label %promisor_remote_lookup.exit33, label %32

32:                                               ; preds = %31
  %33 = getelementptr inbounds nuw i8, ptr %.011.i30, i64 16
  %34 = call i32 @strcmp(ptr noundef nonnull dereferenceable(1) %33, ptr noundef nonnull readonly dereferenceable(1) %30) #11
  %.not14.i32 = icmp eq i32 %34, 0
  br i1 %.not14.i32, label %promisor_remote_lookup.exit33.thread34, label %31, !llvm.loop !38

promisor_remote_lookup.exit33.thread34:           ; preds = %32
  call void @free(ptr noundef nonnull %30) #10
  br label %36

promisor_remote_lookup.exit33:                    ; preds = %31
  %35 = call fastcc ptr @promisor_remote_new(ptr noundef %3, ptr noundef %30)
  call void @free(ptr noundef %30) #10
  %.not27 = icmp eq ptr %35, null
  br i1 %.not27, label %40, label %36

36:                                               ; preds = %promisor_remote_lookup.exit33.thread34, %promisor_remote_lookup.exit33
  %.02137 = phi ptr [ %.011.i30, %promisor_remote_lookup.exit33.thread34 ], [ %35, %promisor_remote_lookup.exit33 ]
  %37 = getelementptr inbounds nuw i8, ptr %.02137, i64 8
  %38 = load ptr, ptr %37, align 8, !tbaa !11
  call void @free(ptr noundef %38) #10
  store ptr null, ptr %37, align 8, !tbaa !11
  %39 = call i32 @git_config_string(ptr noundef nonnull %37, ptr noundef %0, ptr noundef %1) #10
  br label %40

40:                                               ; preds = %25, %36, %promisor_remote_lookup.exit33, %promisor_remote_lookup.exit, %13, %4
  %.0 = phi i32 [ 0, %4 ], [ 0, %13 ], [ 0, %promisor_remote_lookup.exit ], [ %39, %36 ], [ 0, %promisor_remote_lookup.exit33 ], [ 0, %25 ]
  call void @llvm.lifetime.end.p0(i64 8, ptr nonnull %7) #10
  call void @llvm.lifetime.end.p0(i64 8, ptr nonnull %6) #10
  call void @llvm.lifetime.end.p0(i64 8, ptr nonnull %5) #10
  ret i32 %.0
}